#include <math.h>
#include <stdio.h>
#include <stdlib.h>
#include <string.h>

int main(int argc, char* argv[])
{
	int k;
	int n;
	double x[100],sum,ping=0,s;
	double a;
	int i,j;
	scanf ("%d",&k);
	for (i=0;i<k;i++)
	{
		sum=0;
		ping=0;
		scanf("%d",&n);
		for (j=0;j<n;j++)
		{
			scanf ("%lf",&x[j]);
		}
		for (j=0;j<n;j++)
		{
			sum=sum+x[j];			
		}
		a=(double)sum/n;
		for (j=0;j<n;j++)
		{
			ping=ping+(x[j]-a)*(x[j]-a);
		}
		s=(double)sqrt(ping/n);
		printf("%.5lf\n",s);
	}
	return 0;
}